target datalayout = "e-m:e-p270:32:32-p271:32:32-p272:64:64-i64:64-i128:128-f80:128-n8:16:32:64-S128"
target triple = "x86_64-pc-linux-gnu"

%struct.MpegEncContext = type { ptr, i32, i32, i32, [12 x i32], i32, %struct.ScanTable, %struct.ScanTable, [64 x i8], [64 x i8], ptr, ptr, i32, i32, i32, i32, i32, i32, i32, i32, i32, i32, i32, i32, i32, i32, i32, i32, i32, i32, i32, i32, i64, i64, ptr, %struct.BufferPoolContext, i32, i32, %union.anon, i32, %struct.MPVWorkPicture, %struct.MPVWorkPicture, %struct.MPVWorkPicture, i32, [3 x i32], ptr, [3 x ptr], ptr, ptr, ptr, ptr, ptr, ptr, [3 x ptr], i32, ptr, ptr, ptr, ptr, %struct.ScratchpadContext, i32, i32, i32, i32, i32, i32, %struct.BlockDSPContext, %struct.H264ChromaContext, %struct.HpelDSPContext, %struct.IDCTDSPContext, %struct.QpelDSPContext, %struct.VideoDSPContext, %struct.H263DSPContext, ptr, [2 x [2 x ptr]], i32, i32, [2 x [4 x [2 x i32]]], [2 x [2 x i32]], [2 x [2 x [2 x i32]]], [2 x [64 x i16]], i32, i32, i32, i32, i32, [6 x i32], [6 x i32], [3 x ptr], ptr, [64 x i16], [64 x i16], [64 x i16], [64 x i16], i32, i32, %struct.GetBitContext, i32, i32, i32, i32, i32, i32, i32, i32, i32, i32, i32, i32, i32, i32, i32, i64, i64, i16, i16, i16, i16, i32, i32, i32, i32, i32, i32, i32, i32, i32, [3 x i32], i32, i32, i32, i32, i32, i32, %struct.GetBitContext, i32, [2 x [2 x i32]], i32, i32, i32, i32, i32, i32, i32, i32, i32, i32, i32, i32, i32, i32, [2 x i32], i32, i32, ptr, ptr, ptr, ptr, ptr, i32, i32, %struct.ERContext }
%struct.ScanTable = type { ptr, [64 x i8], [64 x i8] }
%struct.BufferPoolContext = type { ptr, ptr, ptr, ptr, ptr, i32, i32, i32 }
%union.anon = type { [32 x ptr] }
%struct.MPVWorkPicture = type { [3 x ptr], [3 x i64], ptr, ptr, [2 x ptr], ptr, ptr, [2 x ptr], i32 }
%struct.ScratchpadContext = type { ptr, ptr, %union.anon.0, i32 }
%union.anon.0 = type { ptr }
%struct.BlockDSPContext = type { ptr, ptr, [2 x ptr] }
%struct.H264ChromaContext = type { [4 x ptr], [4 x ptr] }
%struct.HpelDSPContext = type { [4 x [4 x ptr]], [4 x [4 x ptr]], [4 x [4 x ptr]], [4 x ptr] }
%struct.IDCTDSPContext = type { ptr, ptr, ptr, ptr, ptr, ptr, [64 x i8], i32, i32 }
%struct.QpelDSPContext = type { [2 x [16 x ptr]], [2 x [16 x ptr]], [2 x [16 x ptr]] }
%struct.VideoDSPContext = type { ptr, ptr }
%struct.H263DSPContext = type { ptr, ptr }
%struct.GetBitContext = type { ptr, ptr, i32, i32, i32 }
%struct.ERContext = type { ptr, ptr, i32, ptr, i32, i32, i32, i64, i64, i32, i32, ptr, ptr, [3 x ptr], ptr, ptr, [2 x [4 x [2 x i32]]], %struct.ERPicture, %struct.ERPicture, %struct.ERPicture, [2 x ptr], [2 x ptr], i16, i16, i32, i32, ptr, ptr }
%struct.ERPicture = type { ptr, ptr, ptr, [2 x ptr], [2 x ptr], ptr, i32 }

; Function Attrs: alwaysinline nounwind willreturn memory(none) uwtable
define internal i32 @av_clip_c(i32 noundef %0, i32 noundef %1, i32 noundef %2) #10 {
  %4 = alloca i32, align 4
  %5 = alloca i32, align 4
  %6 = alloca i32, align 4
  %7 = alloca i32, align 4
  store i32 %0, ptr %5, align 4, !tbaa !68
  store i32 %1, ptr %6, align 4, !tbaa !68
  store i32 %2, ptr %7, align 4, !tbaa !68
  %8 = load i32, ptr %5, align 4, !tbaa !68
  %9 = load i32, ptr %6, align 4, !tbaa !68
  %10 = icmp slt i32 %8, %9
  br i1 %10, label %11, label %13

11:                                               ; preds = %3
  %12 = load i32, ptr %6, align 4, !tbaa !68
  store i32 %12, ptr %4, align 4
  br label %21

13:                                               ; preds = %3
  %14 = load i32, ptr %5, align 4, !tbaa !68
  %15 = load i32, ptr %7, align 4, !tbaa !68
  %16 = icmp sgt i32 %14, %15
  br i1 %16, label %17, label %19

17:                                               ; preds = %13
  %18 = load i32, ptr %7, align 4, !tbaa !68
  store i32 %18, ptr %4, align 4
  br label %21

19:                                               ; preds = %13
  %20 = load i32, ptr %5, align 4, !tbaa !68
  store i32 %20, ptr %4, align 4
  br label %21

21:                                               ; preds = %19, %17, %11
  %22 = load i32, ptr %4, align 4
  ret i32 %22
}

; Function Attrs: nounwind uwtable
define internal i32 @lowest_referenced_row(ptr noundef %0, i32 noundef %1) #3 {
  %3 = alloca i32, align 4
  %4 = alloca ptr, align 8
  %5 = alloca i32, align 4
  %6 = alloca i32, align 4
  %7 = alloca i32, align 4
  %8 = alloca i32, align 4
  %9 = alloca i32, align 4
  %10 = alloca i32, align 4
  %11 = alloca i32, align 4
  %12 = alloca i32, align 4
  %13 = alloca i32, align 4
  store ptr %0, ptr %4, align 8, !tbaa !4
  store i32 %1, ptr %5, align 4, !tbaa !68
  call void @llvm.lifetime.start.p0(i64 4, ptr %6) #11
  store i32 -2147483648, ptr %6, align 4, !tbaa !68
  call void @llvm.lifetime.start.p0(i64 4, ptr %7) #11
  store i32 2147483647, ptr %7, align 4, !tbaa !68
  call void @llvm.lifetime.start.p0(i64 4, ptr %8) #11
  %14 = load ptr, ptr %4, align 8, !tbaa !4
  %15 = getelementptr inbounds nuw %struct.MpegEncContext, ptr %14, i32 0, i32 119
  %16 = load i32, ptr %15, align 4, !tbaa !71
  %17 = icmp ne i32 %16, 0
  %18 = xor i1 %17, true
  %19 = zext i1 %18 to i32
  store i32 %19, ptr %8, align 4, !tbaa !68
  call void @llvm.lifetime.start.p0(i64 4, ptr %9) #11
  call void @llvm.lifetime.start.p0(i64 4, ptr %10) #11
  %20 = load ptr, ptr %4, align 8, !tbaa !4
  %21 = getelementptr inbounds nuw %struct.MpegEncContext, ptr %20, i32 0, i32 137
  %22 = load i32, ptr %21, align 4, !tbaa !85
  %23 = icmp ne i32 %22, 3
  br i1 %23, label %29, label %24

24:                                               ; preds = %2
  %25 = load ptr, ptr %4, align 8, !tbaa !4
  %26 = getelementptr inbounds nuw %struct.MpegEncContext, ptr %25, i32 0, i32 118
  %27 = load i32, ptr %26, align 8, !tbaa !177
  %28 = icmp ne i32 %27, 0
  br i1 %28, label %29, label %30

29:                                               ; preds = %24, %2
  br label %102

30:                                               ; preds = %24
  %31 = load ptr, ptr %4, align 8, !tbaa !4
  %32 = getelementptr inbounds nuw %struct.MpegEncContext, ptr %31, i32 0, i32 76
  %33 = load i32, ptr %32, align 4, !tbaa !178
  switch i32 %33, label %37 [
    i32 0, label %34
    i32 2, label %35
    i32 1, label %36
  ]

34:                                               ; preds = %30
  store i32 1, ptr %10, align 4, !tbaa !68
  br label %38

35:                                               ; preds = %30
  store i32 2, ptr %10, align 4, !tbaa !68
  br label %38

36:                                               ; preds = %30
  store i32 4, ptr %10, align 4, !tbaa !68
  br label %38

37:                                               ; preds = %30
  br label %102

38:                                               ; preds = %36, %35, %34
  call void @llvm.lifetime.start.p0(i64 4, ptr %11) #11
  store i32 0, ptr %11, align 4, !tbaa !68
  br label %39

39:                                               ; preds = %73, %38
  %40 = load i32, ptr %11, align 4, !tbaa !68
  %41 = load i32, ptr %10, align 4, !tbaa !68
  %42 = icmp slt i32 %40, %41
  br i1 %42, label %44, label %43

43:                                               ; preds = %39
  call void @llvm.lifetime.end.p0(i64 4, ptr %11) #11
  br label %76

44:                                               ; preds = %39
  call void @llvm.lifetime.start.p0(i64 4, ptr %12) #11
  %45 = load ptr, ptr %4, align 8, !tbaa !4
  %46 = getelementptr inbounds nuw %struct.MpegEncContext, ptr %45, i32 0, i32 77
  %47 = load i32, ptr %5, align 4, !tbaa !68
  %48 = sext i32 %47 to i64
  %49 = getelementptr inbounds [2 x [4 x [2 x i32]]], ptr %46, i64 0, i64 %48
  %50 = load i32, ptr %11, align 4, !tbaa !68
  %51 = sext i32 %50 to i64
  %52 = getelementptr inbounds [4 x [2 x i32]], ptr %49, i64 0, i64 %51
  %53 = getelementptr inbounds [2 x i32], ptr %52, i64 0, i64 1
  %54 = load i32, ptr %53, align 4, !tbaa !68
  store i32 %54, ptr %12, align 4, !tbaa !68
  %55 = load i32, ptr %6, align 4, !tbaa !68
  %56 = load i32, ptr %12, align 4, !tbaa !68
  %57 = icmp sgt i32 %55, %56
  br i1 %57, label %58, label %60

58:                                               ; preds = %44
  %59 = load i32, ptr %6, align 4, !tbaa !68
  br label %62

60:                                               ; preds = %44
  %61 = load i32, ptr %12, align 4, !tbaa !68
  br label %62

62:                                               ; preds = %60, %58
  %63 = phi i32 [ %59, %58 ], [ %61, %60 ]
  store i32 %63, ptr %6, align 4, !tbaa !68
  %64 = load i32, ptr %7, align 4, !tbaa !68
  %65 = load i32, ptr %12, align 4, !tbaa !68
  %66 = icmp sgt i32 %64, %65
  br i1 %66, label %67, label %69

67:                                               ; preds = %62
  %68 = load i32, ptr %12, align 4, !tbaa !68
  br label %71

69:                                               ; preds = %62
  %70 = load i32, ptr %7, align 4, !tbaa !68
  br label %71

71:                                               ; preds = %69, %67
  %72 = phi i32 [ %68, %67 ], [ %70, %69 ]
  store i32 %72, ptr %7, align 4, !tbaa !68
  call void @llvm.lifetime.end.p0(i64 4, ptr %12) #11
  br label %73

73:                                               ; preds = %71
  %74 = load i32, ptr %11, align 4, !tbaa !68
  %75 = add nsw i32 %74, 1
  store i32 %75, ptr %11, align 4, !tbaa !68
  br label %39, !llvm.loop !179

76:                                               ; preds = %43
  %77 = load i32, ptr %7, align 4, !tbaa !68
  %78 = sub nsw i32 0, %77
  %79 = load i32, ptr %6, align 4, !tbaa !68
  %80 = icmp sgt i32 %78, %79
  br i1 %80, label %81, label %84

81:                                               ; preds = %76
  %82 = load i32, ptr %7, align 4, !tbaa !68
  %83 = sub nsw i32 0, %82
  br label %86

84:                                               ; preds = %76
  %85 = load i32, ptr %6, align 4, !tbaa !68
  br label %86

86:                                               ; preds = %84, %81
  %87 = phi i32 [ %83, %81 ], [ %85, %84 ]
  %88 = load i32, ptr %8, align 4, !tbaa !68
  %89 = shl i32 %87, %88
  %90 = add nsw i32 %89, 63
  %91 = ashr i32 %90, 6
  store i32 %91, ptr %9, align 4, !tbaa !68
  %92 = load ptr, ptr %4, align 8, !tbaa !4
  %93 = getelementptr inbounds nuw %struct.MpegEncContext, ptr %92, i32 0, i32 83
  %94 = load i32, ptr %93, align 8, !tbaa !147
  %95 = load i32, ptr %9, align 4, !tbaa !68
  %96 = add nsw i32 %94, %95
  %97 = load ptr, ptr %4, align 8, !tbaa !4
  %98 = getelementptr inbounds nuw %struct.MpegEncContext, ptr %97, i32 0, i32 26
  %99 = load i32, ptr %98, align 8, !tbaa !123
  %100 = sub nsw i32 %99, 1
  %101 = call i32 @av_clip_c(i32 noundef %96, i32 noundef 0, i32 noundef %100) #14
  store i32 %101, ptr %3, align 4
  store i32 1, ptr %13, align 4
  br label %107

102:                                              ; preds = %37, %29
  %103 = load ptr, ptr %4, align 8, !tbaa !4
  %104 = getelementptr inbounds nuw %struct.MpegEncContext, ptr %103, i32 0, i32 26
  %105 = load i32, ptr %104, align 8, !tbaa !123
  %106 = sub nsw i32 %105, 1
  store i32 %106, ptr %3, align 4
  store i32 1, ptr %13, align 4
  br label %107

107:                                              ; preds = %102, %86
  call void @llvm.lifetime.end.p0(i64 4, ptr %10) #11
  call void @llvm.lifetime.end.p0(i64 4, ptr %9) #11
  call void @llvm.lifetime.end.p0(i64 4, ptr %8) #11
  call void @llvm.lifetime.end.p0(i64 4, ptr %7) #11
  call void @llvm.lifetime.end.p0(i64 4, ptr %6) #11
  %108 = load i32, ptr %3, align 4
  ret i32 %108
}