; Function Attrs: nofree norecurse nosync nounwind memory(argmem: read) uwtable
define internal fastcc range(i32 -2147483648, 2147483647) i32 @lowest_referenced_row(ptr noundef readonly captures(none) %0, i32 noundef range(i32 0, 2) %1) unnamed_addr #7 {
  %3 = getelementptr inbounds nuw i8, ptr %0, i64 4092
  %4 = load i32, ptr %3, align 4, !tbaa !67
  %.not = icmp eq i32 %4, 0
  %5 = zext i1 %.not to i32
  %6 = getelementptr inbounds nuw i8, ptr %0, i64 4212
  %7 = load i32, ptr %6, align 4, !tbaa !79
  %.not31 = icmp eq i32 %7, 3
  br i1 %.not31, label %8, label %35

8:                                                ; preds = %2
  %9 = getelementptr inbounds nuw i8, ptr %0, i64 4088
  %10 = load i32, ptr %9, align 8, !tbaa !165
  %.not32 = icmp eq i32 %10, 0
  br i1 %.not32, label %11, label %35

11:                                               ; preds = %8
  %12 = getelementptr inbounds nuw i8, ptr %0, i64 2972
  %13 = load i32, ptr %12, align 4, !tbaa !166
  %14 = icmp ult i32 %13, 3
  br i1 %14, label %switch.lookup, label %35

switch.lookup:                                    ; preds = %11
  %15 = zext nneg i32 %13 to i64
  %switch.gep = getelementptr inbounds nuw [3 x i64], ptr @switch.table.lowest_referenced_row, i64 0, i64 %15
  %switch.load = load i64, ptr %switch.gep, align 8
  %16 = shl nuw nsw i32 %1, 5
  %.idx = zext nneg i32 %16 to i64
  %17 = getelementptr i8, ptr %0, i64 2980
  %invariant.gep = getelementptr i8, ptr %17, i64 %.idx
  br label %31

18:                                               ; preds = %31
  %19 = sub nsw i32 0, %34
  %20 = tail call i32 @llvm.smax.i32(i32 %33, i32 %19)
  %21 = shl i32 %20, %5
  %22 = add nsw i32 %21, 63
  %23 = ashr i32 %22, 6
  %24 = getelementptr inbounds nuw i8, ptr %0, i64 3352
  %25 = load i32, ptr %24, align 8, !tbaa !134
  %26 = add nsw i32 %25, %23
  %27 = getelementptr inbounds nuw i8, ptr %0, i64 544
  %28 = load i32, ptr %27, align 8, !tbaa !114
  %29 = add nsw i32 %28, -1
  %30 = icmp slt i32 %26, 0
  %..i = tail call i32 @llvm.smin.i32(i32 %26, i32 %29)
  %.0.i = select i1 %30, i32 0, i32 %..i
  br label %39

31:                                               ; preds = %switch.lookup, %31
  %indvars.iv = phi i64 [ 0, %switch.lookup ], [ %indvars.iv.next, %31 ]
  %.02936 = phi i32 [ -2147483648, %switch.lookup ], [ %33, %31 ]
  %.03035 = phi i32 [ 2147483647, %switch.lookup ], [ %34, %31 ]
  %.idx33 = shl nuw nsw i64 %indvars.iv, 3
  %gep = getelementptr i8, ptr %invariant.gep, i64 %.idx33
  %32 = load i32, ptr %gep, align 4, !tbaa !94
  %33 = tail call i32 @llvm.smax.i32(i32 %.02936, i32 %32)
  %34 = tail call i32 @llvm.smin.i32(i32 %.03035, i32 %32)
  %indvars.iv.next = add nuw nsw i64 %indvars.iv, 1
  %exitcond.not = icmp eq i64 %indvars.iv.next, %switch.load
  br i1 %exitcond.not, label %18, label %31, !llvm.loop !167

35:                                               ; preds = %11, %2, %8
  %36 = getelementptr inbounds nuw i8, ptr %0, i64 544
  %37 = load i32, ptr %36, align 8, !tbaa !114
  %38 = add nsw i32 %37, -1
  br label %39

39:                                               ; preds = %35, %18
  %.0 = phi i32 [ %38, %35 ], [ %.0.i, %18 ]
  ret i32 %.0
}